target datalayout = "e-m:e-p270:32:32-p271:32:32-p272:64:64-i64:64-i128:128-f80:128-n8:16:32:64-S128"
target triple = "x86_64-pc-linux-gnu"

%struct.mspack_system = type { ptr, ptr, ptr, ptr, ptr, ptr, ptr, ptr, ptr, ptr, ptr }
%struct.msszdd_decompressor_p = type { %struct.msszdd_decompressor, ptr, i32 }
%struct.msszdd_decompressor = type { ptr, ptr, ptr, ptr, ptr }

@mspack_default_system = external global ptr, align 8

; Function Attrs: nounwind uwtable
define ptr @mspack_create_szdd_decompressor(ptr noundef %0) #0 {
  %2 = alloca ptr, align 8
  %3 = alloca ptr, align 8
  %4 = alloca ptr, align 8
  %5 = alloca i32, align 4
  store ptr %0, ptr %3, align 8, !tbaa !3
  call void @llvm.lifetime.start.p0(i64 8, ptr %4) #4
  store ptr null, ptr %4, align 8, !tbaa !8
  %6 = load ptr, ptr %3, align 8, !tbaa !3
  %7 = icmp ne ptr %6, null
  br i1 %7, label %10, label %8

8:                                                ; preds = %1
  %9 = load ptr, ptr @mspack_default_system, align 8, !tbaa !3
  store ptr %9, ptr %3, align 8, !tbaa !3
  br label %10

10:                                               ; preds = %8, %1
  %11 = load ptr, ptr %3, align 8, !tbaa !3
  %12 = call i32 @mspack_valid_system(ptr noundef %11)
  %13 = icmp ne i32 %12, 0
  br i1 %13, label %15, label %14

14:                                               ; preds = %10
  store ptr null, ptr %2, align 8
  store i32 1, ptr %5, align 4
  br label %45

15:                                               ; preds = %10
  %16 = load ptr, ptr %3, align 8, !tbaa !3
  %17 = getelementptr inbounds nuw %struct.mspack_system, ptr %16, i32 0, i32 7
  %18 = load ptr, ptr %17, align 8, !tbaa !10
  %19 = load ptr, ptr %3, align 8, !tbaa !3
  %20 = call ptr %18(ptr noundef %19, i64 noundef 56)
  store ptr %20, ptr %4, align 8, !tbaa !8
  %21 = icmp ne ptr %20, null
  br i1 %21, label %22, label %43

22:                                               ; preds = %15
  %23 = load ptr, ptr %4, align 8, !tbaa !8
  %24 = getelementptr inbounds nuw %struct.msszdd_decompressor_p, ptr %23, i32 0, i32 0
  %25 = getelementptr inbounds nuw %struct.msszdd_decompressor, ptr %24, i32 0, i32 0
  store ptr @szddd_open, ptr %25, align 8, !tbaa !12
  %26 = load ptr, ptr %4, align 8, !tbaa !8
  %27 = getelementptr inbounds nuw %struct.msszdd_decompressor_p, ptr %26, i32 0, i32 0
  %28 = getelementptr inbounds nuw %struct.msszdd_decompressor, ptr %27, i32 0, i32 1
  store ptr @szddd_close, ptr %28, align 8, !tbaa !16
  %29 = load ptr, ptr %4, align 8, !tbaa !8
  %30 = getelementptr inbounds nuw %struct.msszdd_decompressor_p, ptr %29, i32 0, i32 0
  %31 = getelementptr inbounds nuw %struct.msszdd_decompressor, ptr %30, i32 0, i32 2
  store ptr @szddd_extract, ptr %31, align 8, !tbaa !17
  %32 = load ptr, ptr %4, align 8, !tbaa !8
  %33 = getelementptr inbounds nuw %struct.msszdd_decompressor_p, ptr %32, i32 0, i32 0
  %34 = getelementptr inbounds nuw %struct.msszdd_decompressor, ptr %33, i32 0, i32 3
  store ptr @szddd_decompress, ptr %34, align 8, !tbaa !18
  %35 = load ptr, ptr %4, align 8, !tbaa !8
  %36 = getelementptr inbounds nuw %struct.msszdd_decompressor_p, ptr %35, i32 0, i32 0
  %37 = getelementptr inbounds nuw %struct.msszdd_decompressor, ptr %36, i32 0, i32 4
  store ptr @szddd_error, ptr %37, align 8, !tbaa !19
  %38 = load ptr, ptr %3, align 8, !tbaa !3
  %39 = load ptr, ptr %4, align 8, !tbaa !8
  %40 = getelementptr inbounds nuw %struct.msszdd_decompressor_p, ptr %39, i32 0, i32 1
  store ptr %38, ptr %40, align 8, !tbaa !20
  %41 = load ptr, ptr %4, align 8, !tbaa !8
  %42 = getelementptr inbounds nuw %struct.msszdd_decompressor_p, ptr %41, i32 0, i32 2
  store i32 0, ptr %42, align 8, !tbaa !21
  br label %43

43:                                               ; preds = %22, %15
  %44 = load ptr, ptr %4, align 8, !tbaa !8
  store ptr %44, ptr %2, align 8
  store i32 1, ptr %5, align 4
  br label %45

45:                                               ; preds = %43, %14
  call void @llvm.lifetime.end.p0(i64 8, ptr %4) #4
  %46 = load ptr, ptr %2, align 8
  ret ptr %46
}