; Function Attrs: nounwind uwtable
define ptr @mspack_create_szdd_decompressor(ptr noundef %0) local_unnamed_addr #0 {
  %.not = icmp eq ptr %0, null
  %2 = load ptr, ptr @mspack_default_system, align 8
  %spec.select = select i1 %.not, ptr %2, ptr %0
  %3 = tail call i32 @mspack_valid_system(ptr noundef %spec.select) #5
  %.not17 = icmp eq i32 %3, 0
  br i1 %.not17, label %15, label %4

4:                                                ; preds = %1
  %5 = getelementptr inbounds nuw i8, ptr %spec.select, i64 56
  %6 = load ptr, ptr %5, align 8, !tbaa !3
  %7 = tail call ptr %6(ptr noundef %spec.select, i64 noundef 56) #5
  %.not18 = icmp eq ptr %7, null
  br i1 %.not18, label %15, label %8

8:                                                ; preds = %4
  store ptr @szddd_open, ptr %7, align 8, !tbaa !8
  %9 = getelementptr inbounds nuw i8, ptr %7, i64 8
  store ptr @szddd_close, ptr %9, align 8, !tbaa !13
  %10 = getelementptr inbounds nuw i8, ptr %7, i64 16
  store ptr @szddd_extract, ptr %10, align 8, !tbaa !14
  %11 = getelementptr inbounds nuw i8, ptr %7, i64 24
  store ptr @szddd_decompress, ptr %11, align 8, !tbaa !15
  %12 = getelementptr inbounds nuw i8, ptr %7, i64 32
  store ptr @szddd_error, ptr %12, align 8, !tbaa !16
  %13 = getelementptr inbounds nuw i8, ptr %7, i64 40
  store ptr %spec.select, ptr %13, align 8, !tbaa !17
  %14 = getelementptr inbounds nuw i8, ptr %7, i64 48
  store i32 0, ptr %14, align 8, !tbaa !18
  br label %15

15:                                               ; preds = %4, %8, %1
  %.014 = phi ptr [ null, %1 ], [ %7, %8 ], [ null, %4 ]
  ret ptr %.014
}